target datalayout = "e-m:e-p270:32:32-p271:32:32-p272:64:64-i64:64-i128:128-f80:128-n8:16:32:64-S128"
target triple = "x86_64-pc-linux-gnu"

%struct.AVCodecContext = type { ptr, i32, i32, ptr, i32, i32, ptr, ptr, ptr, i64, i32, i32, ptr, i32, %struct.AVRational, %struct.AVRational, %struct.AVRational, i32, i32, i32, i32, i32, %struct.AVRational, i32, i32, i32, i32, i32, i32, i32, i32, i32, i32, i32, ptr, ptr, i32, float, float, float, float, float, float, float, float, float, i32, i32, i32, i32, i32, i32, i32, i32, i32, i32, i32, i32, ptr, ptr, ptr, i32, i32, i32, i32, i32, i32, i32, i32, i32, i32, %struct.AVChannelLayout, i32, i32, i32, i32, i32, i32, i32, i32, ptr, i32, i32, i32, float, float, i32, i32, i32, i32, i32, ptr, i64, i64, float, float, i32, i32, ptr, ptr, i32, i32, i32, i32, i32, ptr, ptr, ptr, ptr, i32, i32, [8 x i64], i32, i32, i32, i32, i32, i32, i32, ptr, ptr, i32, i32, i32, i32, i32, i32, i32, i32, i32, i32, ptr, ptr, i32, i32, ptr, ptr, ptr, ptr, i32, i32, i64, i32, i32, i64, ptr, i64, ptr, i32, ptr, i32 }
%struct.AVRational = type { i32, i32 }
%struct.AVChannelLayout = type { i32, i32, %union.anon.0, ptr }
%union.anon.0 = type { i64 }
%struct.Hnm4VideoContext = type { i8, i32, i32, ptr, ptr, ptr, ptr, ptr, [256 x i32] }

; Function Attrs: nounwind uwtable
define internal void @postprocess_current_frame(ptr noundef %0) #1 {
  %2 = alloca ptr, align 8
  %3 = alloca ptr, align 8
  %4 = alloca i32, align 4
  %5 = alloca i32, align 4
  %6 = alloca i32, align 4
  %7 = alloca i32, align 4
  %8 = alloca ptr, align 8
  %9 = alloca ptr, align 8
  store ptr %0, ptr %2, align 8, !tbaa !4
  call void @llvm.lifetime.start.p0(i64 8, ptr %3) #7
  %10 = load ptr, ptr %2, align 8, !tbaa !4
  %11 = getelementptr inbounds nuw %struct.AVCodecContext, ptr %10, i32 0, i32 6
  %12 = load ptr, ptr %11, align 8, !tbaa !9
  store ptr %12, ptr %3, align 8, !tbaa !29
  call void @llvm.lifetime.start.p0(i64 4, ptr %4) #7
  call void @llvm.lifetime.start.p0(i64 4, ptr %5) #7
  call void @llvm.lifetime.start.p0(i64 4, ptr %6) #7
  call void @llvm.lifetime.start.p0(i64 4, ptr %7) #7
  %13 = load ptr, ptr %3, align 8, !tbaa !29
  %14 = getelementptr inbounds nuw %struct.Hnm4VideoContext, ptr %13, i32 0, i32 1
  %15 = load i32, ptr %14, align 4, !tbaa !40
  store i32 %15, ptr %7, align 4, !tbaa !34
  store i32 0, ptr %5, align 4, !tbaa !34
  br label %16

16:                                               ; preds = %64, %1
  %17 = load i32, ptr %5, align 4, !tbaa !34
  %18 = load ptr, ptr %3, align 8, !tbaa !29
  %19 = getelementptr inbounds nuw %struct.Hnm4VideoContext, ptr %18, i32 0, i32 2
  %20 = load i32, ptr %19, align 8, !tbaa !41
  %21 = icmp ult i32 %17, %20
  br i1 %21, label %22, label %67

22:                                               ; preds = %16
  call void @llvm.lifetime.start.p0(i64 8, ptr %8) #7
  %23 = load ptr, ptr %3, align 8, !tbaa !29
  %24 = getelementptr inbounds nuw %struct.Hnm4VideoContext, ptr %23, i32 0, i32 7
  %25 = load ptr, ptr %24, align 8, !tbaa !44
  %26 = load i32, ptr %5, align 4, !tbaa !34
  %27 = load i32, ptr %7, align 4, !tbaa !34
  %28 = mul i32 %26, %27
  %29 = zext i32 %28 to i64
  %30 = getelementptr inbounds nuw i8, ptr %25, i64 %29
  store ptr %30, ptr %8, align 8, !tbaa !63
  call void @llvm.lifetime.start.p0(i64 8, ptr %9) #7
  %31 = load ptr, ptr %3, align 8, !tbaa !29
  %32 = getelementptr inbounds nuw %struct.Hnm4VideoContext, ptr %31, i32 0, i32 3
  %33 = load ptr, ptr %32, align 8, !tbaa !45
  store ptr %33, ptr %9, align 8, !tbaa !63
  %34 = load i32, ptr %5, align 4, !tbaa !34
  %35 = load i32, ptr %5, align 4, !tbaa !34
  %36 = urem i32 %35, 2
  %37 = sub i32 %34, %36
  store i32 %37, ptr %6, align 4, !tbaa !34
  %38 = load i32, ptr %6, align 4, !tbaa !34
  %39 = load i32, ptr %7, align 4, !tbaa !34
  %40 = mul i32 %38, %39
  %41 = load i32, ptr %5, align 4, !tbaa !34
  %42 = urem i32 %41, 2
  %43 = add i32 %40, %42
  %44 = load ptr, ptr %9, align 8, !tbaa !63
  %45 = zext i32 %43 to i64
  %46 = getelementptr inbounds nuw i8, ptr %44, i64 %45
  store ptr %46, ptr %9, align 8, !tbaa !63
  store i32 0, ptr %4, align 4, !tbaa !34
  br label %47

47:                                               ; preds = %60, %22
  %48 = load i32, ptr %4, align 4, !tbaa !34
  %49 = load i32, ptr %7, align 4, !tbaa !34
  %50 = icmp ult i32 %48, %49
  br i1 %50, label %51, label %63

51:                                               ; preds = %47
  %52 = load ptr, ptr %9, align 8, !tbaa !63
  %53 = load i8, ptr %52, align 1, !tbaa !36
  %54 = load ptr, ptr %8, align 8, !tbaa !63
  %55 = load i32, ptr %4, align 4, !tbaa !34
  %56 = zext i32 %55 to i64
  %57 = getelementptr inbounds nuw i8, ptr %54, i64 %56
  store i8 %53, ptr %57, align 1, !tbaa !36
  %58 = load ptr, ptr %9, align 8, !tbaa !63
  %59 = getelementptr inbounds i8, ptr %58, i64 2
  store ptr %59, ptr %9, align 8, !tbaa !63
  br label %60

60:                                               ; preds = %51
  %61 = load i32, ptr %4, align 4, !tbaa !34
  %62 = add i32 %61, 1
  store i32 %62, ptr %4, align 4, !tbaa !34
  br label %47, !llvm.loop !69

63:                                               ; preds = %47
  call void @llvm.lifetime.end.p0(i64 8, ptr %9) #7
  call void @llvm.lifetime.end.p0(i64 8, ptr %8) #7
  br label %64

64:                                               ; preds = %63
  %65 = load i32, ptr %5, align 4, !tbaa !34
  %66 = add i32 %65, 1
  store i32 %66, ptr %5, align 4, !tbaa !34
  br label %16, !llvm.loop !70

67:                                               ; preds = %16
  call void @llvm.lifetime.end.p0(i64 4, ptr %7) #7
  call void @llvm.lifetime.end.p0(i64 4, ptr %6) #7
  call void @llvm.lifetime.end.p0(i64 4, ptr %5) #7
  call void @llvm.lifetime.end.p0(i64 4, ptr %4) #7
  call void @llvm.lifetime.end.p0(i64 8, ptr %3) #7
  ret void
}