; Function Attrs: nofree norecurse nosync nounwind memory(readwrite, inaccessiblemem: none) uwtable
define internal fastcc void @postprocess_current_frame(ptr readonly captures(none) %.32.val) unnamed_addr #4 {
  %1 = getelementptr inbounds nuw i8, ptr %.32.val, i64 4
  %2 = load i32, ptr %1, align 4, !tbaa !35
  %3 = getelementptr inbounds nuw i8, ptr %.32.val, i64 8
  %4 = load i32, ptr %3, align 8, !tbaa !36
  %.not = icmp eq i32 %4, 0
  br i1 %.not, label %._crit_edge6, label %.lr.ph5

.lr.ph5:                                          ; preds = %0
  %5 = getelementptr inbounds nuw i8, ptr %.32.val, i64 48
  %6 = getelementptr inbounds nuw i8, ptr %.32.val, i64 16
  %.not7 = icmp eq i32 %2, 0
  br i1 %.not7, label %._crit_edge6, label %.lr.ph.us.preheader

.lr.ph.us.preheader:                              ; preds = %.lr.ph5
  %wide.trip.count = zext i32 %2 to i64
  br label %.lr.ph.us

.lr.ph.us:                                        ; preds = %.lr.ph.us.preheader, %._crit_edge.us
  %indvars.iv10 = phi i64 [ 0, %.lr.ph.us.preheader ], [ %indvars.iv.next11, %._crit_edge.us ]
  %7 = load ptr, ptr %5, align 8, !tbaa !39
  %8 = trunc nuw i64 %indvars.iv10 to i32
  %9 = mul i32 %2, %8
  %10 = zext i32 %9 to i64
  %11 = getelementptr inbounds nuw i8, ptr %7, i64 %10
  %12 = load ptr, ptr %6, align 8, !tbaa !40
  %13 = and i32 %8, 1
  %14 = and i32 %8, -2
  %15 = mul i32 %14, %2
  %16 = or disjoint i32 %15, %13
  %17 = zext i32 %16 to i64
  %18 = getelementptr inbounds nuw i8, ptr %12, i64 %17
  br label %19

19:                                               ; preds = %.lr.ph.us, %19
  %indvars.iv = phi i64 [ 0, %.lr.ph.us ], [ %indvars.iv.next, %19 ]
  %.02.us = phi ptr [ %18, %.lr.ph.us ], [ %22, %19 ]
  %20 = load i8, ptr %.02.us, align 1, !tbaa !31
  %21 = getelementptr inbounds nuw i8, ptr %11, i64 %indvars.iv
  store i8 %20, ptr %21, align 1, !tbaa !31
  %22 = getelementptr inbounds nuw i8, ptr %.02.us, i64 2
  %indvars.iv.next = add nuw nsw i64 %indvars.iv, 1
  %exitcond.not = icmp eq i64 %indvars.iv.next, %wide.trip.count
  br i1 %exitcond.not, label %._crit_edge.us, label %19, !llvm.loop !67

._crit_edge.us:                                   ; preds = %19
  %indvars.iv.next11 = add nuw nsw i64 %indvars.iv10, 1
  %23 = load i32, ptr %3, align 8, !tbaa !36
  %24 = zext i32 %23 to i64
  %25 = icmp samesign ult i64 %indvars.iv.next11, %24
  br i1 %25, label %.lr.ph.us, label %._crit_edge6, !llvm.loop !68

._crit_edge6:                                     ; preds = %._crit_edge.us, %.lr.ph5, %0
  ret void
}